target datalayout = "e-m:e-p270:32:32-p271:32:32-p272:64:64-i64:64-i128:128-f80:128-n8:16:32:64-S128"
target triple = "x86_64-pc-linux-gnu"

%struct.PJconsts = type { ptr, ptr, ptr, ptr, ptr, ptr, ptr, ptr, ptr, ptr, ptr, ptr, i32, ptr, ptr, ptr, ptr, ptr, ptr, ptr, ptr, double, double, double, double, double, double, double, double, double, double, double, double, double, double, double, double, double, double, double, double, double, double, i32, i32, i32, i32, i32, i32, i32, i32, i32, i32, i32, ptr, ptr, ptr, ptr, ptr, ptr, double, double, double, double, double, double, double, double, double, double, double, i32, [7 x double], i32, ptr, ptr, double, double, i32, [4 x i8], %"class.std::shared_ptr", i8, double, i8, %"class.std::__cxx11::basic_string", %"class.std::__cxx11::basic_string", %"class.std::__cxx11::basic_string", i8, %"class.std::vector", i32, %"class.std::vector.3", i32, i8, i8, i8, ptr }
%"class.std::shared_ptr" = type { %"class.std::__shared_ptr" }
%"class.std::__shared_ptr" = type { ptr, %"class.std::__shared_count" }
%"class.std::__shared_count" = type { ptr }
%"class.std::__cxx11::basic_string" = type { %"struct.std::__cxx11::basic_string<char>::_Alloc_hider", i64, %union.anon }
%"struct.std::__cxx11::basic_string<char>::_Alloc_hider" = type { ptr }
%union.anon = type { i64, [8 x i8] }
%"class.std::vector" = type { %"struct.std::_Vector_base" }
%"struct.std::_Vector_base" = type { %"struct.std::_Vector_base<osgeo::proj::operation::GridDescription, std::allocator<osgeo::proj::operation::GridDescription>>::_Vector_impl" }
%"struct.std::_Vector_base<osgeo::proj::operation::GridDescription, std::allocator<osgeo::proj::operation::GridDescription>>::_Vector_impl" = type { %"struct.std::_Vector_base<osgeo::proj::operation::GridDescription, std::allocator<osgeo::proj::operation::GridDescription>>::_Vector_impl_data" }
%"struct.std::_Vector_base<osgeo::proj::operation::GridDescription, std::allocator<osgeo::proj::operation::GridDescription>>::_Vector_impl_data" = type { ptr, ptr, ptr }
%"class.std::vector.3" = type { %"struct.std::_Vector_base.4" }
%"struct.std::_Vector_base.4" = type { %"struct.std::_Vector_base<PJCoordOperation, std::allocator<PJCoordOperation>>::_Vector_impl" }
%"struct.std::_Vector_base<PJCoordOperation, std::allocator<PJCoordOperation>>::_Vector_impl" = type { %"struct.std::_Vector_base<PJCoordOperation, std::allocator<PJCoordOperation>>::_Vector_impl_data" }
%"struct.std::_Vector_base<PJCoordOperation, std::allocator<PJCoordOperation>>::_Vector_impl_data" = type { ptr, ptr, ptr }
%union.PROJVALUE = type { double }
%"struct.(anonymous namespace)::pj_opaque_vertoffset" = type { double, double, double, double, double }

@.str.1 = private unnamed_addr constant [11 x i8] c"dslope_lon\00", align 1
@.str.2 = private unnamed_addr constant [11 x i8] c"dslope_lat\00", align 1
@.str.3 = private unnamed_addr constant [4 x i8] c"ddh\00", align 1

; Function Attrs: mustprogress uwtable
define hidden noundef ptr @_Z39pj_projection_specific_setup_vertoffsetP8PJconsts(ptr noundef %0) #0 {
  %2 = alloca ptr, align 8
  %3 = alloca ptr, align 8
  %4 = alloca ptr, align 8
  %5 = alloca i32, align 4
  %6 = alloca %union.PROJVALUE, align 8
  %7 = alloca %union.PROJVALUE, align 8
  %8 = alloca %union.PROJVALUE, align 8
  %9 = alloca double, align 8
  %10 = alloca double, align 8
  store ptr %0, ptr %3, align 8, !tbaa !3
  call void @llvm.lifetime.start.p0(i64 8, ptr %4) #7
  %11 = call noalias ptr @calloc(i64 noundef 1, i64 noundef 40) #8
  store ptr %11, ptr %4, align 8, !tbaa !41
  %12 = load ptr, ptr %4, align 8, !tbaa !41
  %13 = icmp eq ptr null, %12
  br i1 %13, label %14, label %17

14:                                               ; preds = %1
  %15 = load ptr, ptr %3, align 8, !tbaa !3
  %16 = call noundef ptr @_Z21pj_default_destructorP8PJconstsi(ptr noundef %15, i32 noundef 4096)
  store ptr %16, ptr %2, align 8
  store i32 1, ptr %5, align 4
  br label %100

17:                                               ; preds = %1
  %18 = load ptr, ptr %4, align 8, !tbaa !41
  %19 = load ptr, ptr %3, align 8, !tbaa !3
  %20 = getelementptr inbounds nuw %struct.PJconsts, ptr %19, i32 0, i32 11
  store ptr %18, ptr %20, align 8, !tbaa !43
  %21 = load ptr, ptr %3, align 8, !tbaa !3
  %22 = getelementptr inbounds nuw %struct.PJconsts, ptr %21, i32 0, i32 15
  store ptr @_ZL10forward_3d6PJ_LPZP8PJconsts, ptr %22, align 8, !tbaa !44
  %23 = load ptr, ptr %3, align 8, !tbaa !3
  %24 = getelementptr inbounds nuw %struct.PJconsts, ptr %23, i32 0, i32 16
  store ptr @_ZL10reverse_3d6PJ_XYZP8PJconsts, ptr %24, align 8, !tbaa !45
  %25 = load ptr, ptr %3, align 8, !tbaa !3
  %26 = getelementptr inbounds nuw %struct.PJconsts, ptr %25, i32 0, i32 52
  store i32 4, ptr %26, align 4, !tbaa !39
  %27 = load ptr, ptr %3, align 8, !tbaa !3
  %28 = getelementptr inbounds nuw %struct.PJconsts, ptr %27, i32 0, i32 53
  store i32 4, ptr %28, align 8, !tbaa !40
  call void @llvm.lifetime.start.p0(i64 8, ptr %6) #7
  %29 = load ptr, ptr %3, align 8, !tbaa !3
  %30 = getelementptr inbounds nuw %struct.PJconsts, ptr %29, i32 0, i32 0
  %31 = load ptr, ptr %30, align 8, !tbaa !46
  %32 = load ptr, ptr %3, align 8, !tbaa !3
  %33 = getelementptr inbounds nuw %struct.PJconsts, ptr %32, i32 0, i32 3
  %34 = load ptr, ptr %33, align 8, !tbaa !47
  %35 = call i64 @_Z8pj_paramP6pj_ctxP8ARG_listPKc(ptr noundef %31, ptr noundef %34, ptr noundef @.str.1)
  %36 = getelementptr inbounds nuw %union.PROJVALUE, ptr %6, i32 0, i32 0
  store i64 %35, ptr %36, align 8
  %37 = load double, ptr %6, align 8, !tbaa !48
  %38 = fmul double %37, 0x3ED455A5B2FF8F9D
  %39 = load ptr, ptr %4, align 8, !tbaa !41
  %40 = getelementptr inbounds nuw %"struct.(anonymous namespace)::pj_opaque_vertoffset", ptr %39, i32 0, i32 0
  store double %38, ptr %40, align 8, !tbaa !49
  call void @llvm.lifetime.end.p0(i64 8, ptr %6) #7
  call void @llvm.lifetime.start.p0(i64 8, ptr %7) #7
  %41 = load ptr, ptr %3, align 8, !tbaa !3
  %42 = getelementptr inbounds nuw %struct.PJconsts, ptr %41, i32 0, i32 0
  %43 = load ptr, ptr %42, align 8, !tbaa !46
  %44 = load ptr, ptr %3, align 8, !tbaa !3
  %45 = getelementptr inbounds nuw %struct.PJconsts, ptr %44, i32 0, i32 3
  %46 = load ptr, ptr %45, align 8, !tbaa !47
  %47 = call i64 @_Z8pj_paramP6pj_ctxP8ARG_listPKc(ptr noundef %43, ptr noundef %46, ptr noundef @.str.2)
  %48 = getelementptr inbounds nuw %union.PROJVALUE, ptr %7, i32 0, i32 0
  store i64 %47, ptr %48, align 8
  %49 = load double, ptr %7, align 8, !tbaa !48
  %50 = fmul double %49, 0x3ED455A5B2FF8F9D
  %51 = load ptr, ptr %4, align 8, !tbaa !41
  %52 = getelementptr inbounds nuw %"struct.(anonymous namespace)::pj_opaque_vertoffset", ptr %51, i32 0, i32 1
  store double %50, ptr %52, align 8, !tbaa !51
  call void @llvm.lifetime.end.p0(i64 8, ptr %7) #7
  call void @llvm.lifetime.start.p0(i64 8, ptr %8) #7
  %53 = load ptr, ptr %3, align 8, !tbaa !3
  %54 = getelementptr inbounds nuw %struct.PJconsts, ptr %53, i32 0, i32 0
  %55 = load ptr, ptr %54, align 8, !tbaa !46
  %56 = load ptr, ptr %3, align 8, !tbaa !3
  %57 = getelementptr inbounds nuw %struct.PJconsts, ptr %56, i32 0, i32 3
  %58 = load ptr, ptr %57, align 8, !tbaa !47
  %59 = call i64 @_Z8pj_paramP6pj_ctxP8ARG_listPKc(ptr noundef %55, ptr noundef %58, ptr noundef @.str.3)
  %60 = getelementptr inbounds nuw %union.PROJVALUE, ptr %8, i32 0, i32 0
  store i64 %59, ptr %60, align 8
  %61 = load double, ptr %8, align 8, !tbaa !48
  %62 = load ptr, ptr %4, align 8, !tbaa !41
  %63 = getelementptr inbounds nuw %"struct.(anonymous namespace)::pj_opaque_vertoffset", ptr %62, i32 0, i32 2
  store double %61, ptr %63, align 8, !tbaa !52
  call void @llvm.lifetime.end.p0(i64 8, ptr %8) #7
  call void @llvm.lifetime.start.p0(i64 8, ptr %9) #7
  %64 = load ptr, ptr %3, align 8, !tbaa !3
  %65 = getelementptr inbounds nuw %struct.PJconsts, ptr %64, i32 0, i32 61
  %66 = load double, ptr %65, align 8, !tbaa !53
  %67 = call double @sin(double noundef %66) #7, !tbaa !54
  store double %67, ptr %9, align 8, !tbaa !55
  call void @llvm.lifetime.start.p0(i64 8, ptr %10) #7
  %68 = load ptr, ptr %3, align 8, !tbaa !3
  %69 = getelementptr inbounds nuw %struct.PJconsts, ptr %68, i32 0, i32 27
  %70 = load double, ptr %69, align 8, !tbaa !56
  %71 = load double, ptr %9, align 8, !tbaa !55
  %72 = load double, ptr %9, align 8, !tbaa !55
  %73 = fmul double %71, %72
  %74 = fneg double %70
  %75 = call double @llvm.fmuladd.f64(double %74, double %73, double 1.000000e+00)
  store double %75, ptr %10, align 8, !tbaa !55
  %76 = load ptr, ptr %3, align 8, !tbaa !3
  %77 = getelementptr inbounds nuw %struct.PJconsts, ptr %76, i32 0, i32 21
  %78 = load double, ptr %77, align 8, !tbaa !57
  %79 = load ptr, ptr %3, align 8, !tbaa !3
  %80 = getelementptr inbounds nuw %struct.PJconsts, ptr %79, i32 0, i32 27
  %81 = load double, ptr %80, align 8, !tbaa !56
  %82 = fsub double 1.000000e+00, %81
  %83 = fmul double %78, %82
  %84 = load double, ptr %10, align 8, !tbaa !55
  %85 = load double, ptr %10, align 8, !tbaa !55
  %86 = call double @sqrt(double noundef %85) #7, !tbaa !54
  %87 = fmul double %84, %86
  %88 = fdiv double %83, %87
  %89 = load ptr, ptr %4, align 8, !tbaa !41
  %90 = getelementptr inbounds nuw %"struct.(anonymous namespace)::pj_opaque_vertoffset", ptr %89, i32 0, i32 3
  store double %88, ptr %90, align 8, !tbaa !58
  %91 = load ptr, ptr %3, align 8, !tbaa !3
  %92 = getelementptr inbounds nuw %struct.PJconsts, ptr %91, i32 0, i32 21
  %93 = load double, ptr %92, align 8, !tbaa !57
  %94 = load double, ptr %10, align 8, !tbaa !55
  %95 = call double @sqrt(double noundef %94) #7, !tbaa !54
  %96 = fdiv double %93, %95
  %97 = load ptr, ptr %4, align 8, !tbaa !41
  %98 = getelementptr inbounds nuw %"struct.(anonymous namespace)::pj_opaque_vertoffset", ptr %97, i32 0, i32 4
  store double %96, ptr %98, align 8, !tbaa !59
  %99 = load ptr, ptr %3, align 8, !tbaa !3
  store ptr %99, ptr %2, align 8
  store i32 1, ptr %5, align 4
  call void @llvm.lifetime.end.p0(i64 8, ptr %10) #7
  call void @llvm.lifetime.end.p0(i64 8, ptr %9) #7
  br label %100

100:                                              ; preds = %17, %14
  call void @llvm.lifetime.end.p0(i64 8, ptr %4) #7
  %101 = load ptr, ptr %2, align 8
  ret ptr %101
}