; Function Attrs: mustprogress uwtable
define hidden noundef ptr @_Z39pj_projection_specific_setup_vertoffsetP8PJconsts(ptr noundef %0) local_unnamed_addr #0 {
  %2 = tail call noalias dereferenceable_or_null(40) ptr @calloc(i64 noundef 1, i64 noundef 40) #6
  %3 = icmp eq ptr %2, null
  br i1 %3, label %4, label %6

4:                                                ; preds = %1
  %5 = tail call noundef ptr @_Z21pj_default_destructorP8PJconstsi(ptr noundef %0, i32 noundef 4096)
  br label %47

6:                                                ; preds = %1
  %7 = getelementptr inbounds nuw i8, ptr %0, i64 88
  store ptr %2, ptr %7, align 8, !tbaa !40
  %8 = getelementptr inbounds nuw i8, ptr %0, i64 120
  store ptr @_ZL10forward_3d6PJ_LPZP8PJconsts, ptr %8, align 8, !tbaa !41
  %9 = getelementptr inbounds nuw i8, ptr %0, i64 128
  store ptr @_ZL10reverse_3d6PJ_XYZP8PJconsts, ptr %9, align 8, !tbaa !42
  %10 = getelementptr inbounds nuw i8, ptr %0, i64 380
  store i32 4, ptr %10, align 4, !tbaa !38
  %11 = getelementptr inbounds nuw i8, ptr %0, i64 384
  store i32 4, ptr %11, align 8, !tbaa !39
  %12 = load ptr, ptr %0, align 8, !tbaa !43
  %13 = getelementptr inbounds nuw i8, ptr %0, i64 24
  %14 = load ptr, ptr %13, align 8, !tbaa !44
  %15 = tail call i64 @_Z8pj_paramP6pj_ctxP8ARG_listPKc(ptr noundef %12, ptr noundef %14, ptr noundef nonnull @.str.1)
  %16 = bitcast i64 %15 to double
  %17 = fmul double %16, 0x3ED455A5B2FF8F9D
  store double %17, ptr %2, align 8, !tbaa !45
  %18 = load ptr, ptr %0, align 8, !tbaa !43
  %19 = load ptr, ptr %13, align 8, !tbaa !44
  %20 = tail call i64 @_Z8pj_paramP6pj_ctxP8ARG_listPKc(ptr noundef %18, ptr noundef %19, ptr noundef nonnull @.str.2)
  %21 = bitcast i64 %20 to double
  %22 = fmul double %21, 0x3ED455A5B2FF8F9D
  %23 = getelementptr inbounds nuw i8, ptr %2, i64 8
  store double %22, ptr %23, align 8, !tbaa !47
  %24 = load ptr, ptr %0, align 8, !tbaa !43
  %25 = load ptr, ptr %13, align 8, !tbaa !44
  %26 = tail call i64 @_Z8pj_paramP6pj_ctxP8ARG_listPKc(ptr noundef %24, ptr noundef %25, ptr noundef nonnull @.str.3)
  %27 = getelementptr inbounds nuw i8, ptr %2, i64 16
  store i64 %26, ptr %27, align 8, !tbaa !48
  %28 = getelementptr inbounds nuw i8, ptr %0, i64 448
  %29 = load double, ptr %28, align 8, !tbaa !49
  %30 = tail call double @sin(double noundef %29) #7, !tbaa !50
  %31 = getelementptr inbounds nuw i8, ptr %0, i64 216
  %32 = load double, ptr %31, align 8, !tbaa !51
  %33 = fmul double %30, %30
  %34 = fneg double %32
  %35 = tail call double @llvm.fmuladd.f64(double %34, double %33, double 1.000000e+00)
  %36 = getelementptr inbounds nuw i8, ptr %0, i64 168
  %37 = load double, ptr %36, align 8, !tbaa !52
  %38 = fsub double 1.000000e+00, %32
  %39 = fmul double %37, %38
  %40 = tail call double @sqrt(double noundef %35) #7, !tbaa !50
  %41 = fmul double %35, %40
  %42 = fdiv double %39, %41
  %43 = getelementptr inbounds nuw i8, ptr %2, i64 24
  store double %42, ptr %43, align 8, !tbaa !53
  %44 = tail call double @sqrt(double noundef %35) #7, !tbaa !50
  %45 = fdiv double %37, %44
  %46 = getelementptr inbounds nuw i8, ptr %2, i64 32
  store double %45, ptr %46, align 8, !tbaa !54
  br label %47

47:                                               ; preds = %6, %4
  %.0 = phi ptr [ %5, %4 ], [ %0, %6 ]
  ret ptr %.0
}